; Function Attrs: mustprogress uwtable
define hidden noundef ptr @_ZNK5osgeo4proj9operation10Conversion17getESRIMethodNameEv(ptr noundef nonnull align 8 dereferenceable(24) %0) local_unnamed_addr #0 align 2 {
  %2 = alloca ptr, align 8
  %3 = alloca ptr, align 8
  %4 = tail call noundef nonnull align 8 dereferenceable(16) ptr @_ZNK5osgeo4proj9operation15SingleOperation6methodEv(ptr noundef nonnull align 8 dereferenceable(16) %0) #36
  %5 = load ptr, ptr %4, align 8, !tbaa !58
  %6 = tail call noundef nonnull align 8 dereferenceable(32) ptr @_ZNK5osgeo4proj6common16IdentifiedObject7nameStrB5cxx11Ev(ptr noundef nonnull align 8 dereferenceable(40) %5) #36
  %7 = tail call noundef i32 @_ZNK5osgeo4proj9operation15OperationMethod11getEPSGCodeEv(ptr noundef nonnull align 8 dereferenceable(56) %5) #36
  call void @llvm.lifetime.start.p0(i64 8, ptr nonnull %2) #32
  call void @llvm.lifetime.start.p0(i64 8, ptr nonnull %3) #32
  call fastcc void @_ZN5osgeo4proj9operationL26getESRIMethodNameAndParamsEPKNS1_10ConversionERKNSt7__cxx1112basic_stringIcSt11char_traitsIcESaIcEEEiRPKcRPKNS1_16ESRIParamMappingE(ptr noundef %0, ptr noundef nonnull align 8 dereferenceable(32) %6, i32 noundef %7, ptr noundef nonnull align 8 dereferenceable(8) %3, ptr noundef nonnull align 8 dereferenceable(8) %2)
  %8 = load ptr, ptr %3, align 8, !tbaa !374
  call void @llvm.lifetime.end.p0(i64 8, ptr nonnull %3) #32
  call void @llvm.lifetime.end.p0(i64 8, ptr nonnull %2) #32
  ret ptr %8
}